target datalayout = "e-m:e-p270:32:32-p271:32:32-p272:64:64-i64:64-i128:128-f80:128-n8:16:32:64-S128"
target triple = "x86_64-pc-linux-gnu"

%struct.strbuf = type { i64, i64, ptr }
%struct.stash_info = type { %struct.object_id, %struct.object_id, %struct.object_id, %struct.object_id, %struct.object_id, %struct.object_id, %struct.object_id, %struct.object_id, %struct.strbuf, i32, i32 }
%struct.object_id = type { [32 x i8], i32 }

@the_repository = external global ptr, align 8
@stderr = external global ptr, align 8
@ref_stash = internal constant [11 x i8] c"refs/stash\00", align 1
@.str.25 = private unnamed_addr constant [1 x i8] zeroinitializer, align 1
@git_gettext_enabled = external global i32, align 4
@.str.90 = private unnamed_addr constant [25 x i8] c"Cannot update %s with %s\00", align 1
@.str.92 = private unnamed_addr constant [31 x i8] c"Created via \22git stash store\22.\00", align 1

; Function Attrs: inlinehint nounwind uwtable
define internal ptr @_(ptr noundef %0) #5 {
  %2 = alloca ptr, align 8
  %3 = alloca ptr, align 8
  store ptr %0, ptr %3, align 8, !tbaa !11
  %4 = load ptr, ptr %3, align 8, !tbaa !11
  %5 = load i8, ptr %4, align 1, !tbaa !58
  %6 = icmp ne i8 %5, 0
  br i1 %6, label %8, label %7

7:                                                ; preds = %1
  store ptr @.str.25, ptr %2, align 8
  br label %16

8:                                                ; preds = %1
  %9 = load i32, ptr @git_gettext_enabled, align 4, !tbaa !4
  %10 = icmp ne i32 %9, 0
  br i1 %10, label %13, label %11

11:                                               ; preds = %8
  %12 = load ptr, ptr %3, align 8, !tbaa !11
  store ptr %12, ptr %2, align 8
  br label %16

13:                                               ; preds = %8
  %14 = load ptr, ptr %3, align 8, !tbaa !11
  %15 = call ptr @dcgettext(ptr noundef null, ptr noundef %14, i32 noundef 5) #9
  store ptr %15, ptr %2, align 8
  br label %16

16:                                               ; preds = %13, %11, %7
  %17 = load ptr, ptr %2, align 8
  ret ptr %17
}

; Function Attrs: nounwind uwtable
define internal i32 @do_store_stash(ptr noundef %0, ptr noundef %1, i32 noundef %2) #0 {
  %4 = alloca i32, align 4
  %5 = alloca ptr, align 8
  %6 = alloca ptr, align 8
  %7 = alloca i32, align 4
  %8 = alloca %struct.stash_info, align 8
  %9 = alloca [64 x i8], align 16
  %10 = alloca i32, align 4
  store ptr %0, ptr %5, align 8, !tbaa !129
  store ptr %1, ptr %6, align 8, !tbaa !11
  store i32 %2, ptr %7, align 4, !tbaa !4
  call void @llvm.lifetime.start.p0(i64 320, ptr %8) #9
  call void @llvm.lifetime.start.p0(i64 64, ptr %9) #9
  %11 = getelementptr inbounds [64 x i8], ptr %9, i64 0, i64 0
  %12 = load ptr, ptr %5, align 8, !tbaa !129
  %13 = call ptr @oid_to_hex_r(ptr noundef %11, ptr noundef %12)
  %14 = getelementptr inbounds [64 x i8], ptr %9, i64 0, i64 0
  call void @assert_stash_like(ptr noundef %8, ptr noundef %14)
  %15 = load ptr, ptr %6, align 8, !tbaa !11
  %16 = icmp ne ptr %15, null
  br i1 %16, label %18, label %17

17:                                               ; preds = %3
  store ptr @.str.92, ptr %6, align 8, !tbaa !11
  br label %18

18:                                               ; preds = %17, %3
  %19 = load ptr, ptr @the_repository, align 8, !tbaa !13
  %20 = call ptr @get_main_ref_store(ptr noundef %19)
  %21 = load ptr, ptr %6, align 8, !tbaa !11
  %22 = load ptr, ptr %5, align 8, !tbaa !129
  %23 = load i32, ptr %7, align 4, !tbaa !4
  %24 = icmp ne i32 %23, 0
  %25 = select i1 %24, i32 2, i32 0
  %26 = call i32 @refs_update_ref(ptr noundef %20, ptr noundef %21, ptr noundef @ref_stash, ptr noundef %22, ptr noundef null, i32 noundef 2, i32 noundef %25)
  %27 = icmp ne i32 %26, 0
  br i1 %27, label %28, label %38

28:                                               ; preds = %18
  %29 = load i32, ptr %7, align 4, !tbaa !4
  %30 = icmp ne i32 %29, 0
  br i1 %30, label %37, label %31

31:                                               ; preds = %28
  %32 = load ptr, ptr @stderr, align 8, !tbaa !52
  %33 = call ptr @_(ptr noundef @.str.90)
  %34 = load ptr, ptr %5, align 8, !tbaa !129
  %35 = call ptr @oid_to_hex(ptr noundef %34)
  %36 = call i32 (ptr, ptr, ...) @fprintf_ln(ptr noundef %32, ptr noundef %33, ptr noundef @ref_stash, ptr noundef %35)
  br label %37

37:                                               ; preds = %31, %28
  store i32 -1, ptr %4, align 4
  store i32 1, ptr %10, align 4
  br label %39

38:                                               ; preds = %18
  store i32 0, ptr %4, align 4
  store i32 1, ptr %10, align 4
  br label %39

39:                                               ; preds = %38, %37
  call void @llvm.lifetime.end.p0(i64 64, ptr %9) #9
  call void @llvm.lifetime.end.p0(i64 320, ptr %8) #9
  %40 = load i32, ptr %4, align 4
  ret i32 %40
}