; Function Attrs: nounwind uwtable
define internal fastcc range(i32 -1, 1) i32 @do_store_stash(ptr noundef nonnull %0, ptr noundef %1, i32 noundef %2) unnamed_addr #0 {
  %4 = alloca %struct.stash_info, align 8
  %5 = alloca [64 x i8], align 16
  call void @llvm.lifetime.start.p0(i64 320, ptr nonnull %4) #15
  call void @llvm.lifetime.start.p0(i64 64, ptr nonnull %5) #15
  %6 = call ptr @oid_to_hex_r(ptr noundef nonnull %5, ptr noundef nonnull %0) #15
  call fastcc void @assert_stash_like(ptr noundef %4, ptr noundef nonnull %5)
  %.not = icmp eq ptr %1, null
  %spec.store.select = select i1 %.not, ptr @.str.92, ptr %1
  %7 = load ptr, ptr @the_repository, align 8, !tbaa !18
  %8 = call ptr @get_main_ref_store(ptr noundef %7) #15
  %.not7 = icmp ne i32 %2, 0
  %9 = select i1 %.not7, i32 2, i32 0
  %10 = call i32 @refs_update_ref(ptr noundef %8, ptr noundef nonnull %spec.store.select, ptr noundef nonnull @ref_stash, ptr noundef nonnull %0, ptr noundef null, i32 noundef 2, i32 noundef %9) #15
  %.not8 = icmp eq i32 %10, 0
  %brmerge = or i1 %.not7, %.not8
  %not..not8 = xor i1 %.not8, true
  %.mux = sext i1 %not..not8 to i32
  br i1 %brmerge, label %18, label %11

11:                                               ; preds = %3
  %12 = load ptr, ptr @stderr, align 8, !tbaa !52
  %13 = load i32, ptr @git_gettext_enabled, align 4, !tbaa !42
  %.not4.i = icmp eq i32 %13, 0
  br i1 %.not4.i, label %_.exit, label %14

14:                                               ; preds = %11
  %15 = call ptr @dcgettext(ptr noundef null, ptr noundef nonnull @.str.90, i32 noundef 5) #15
  br label %_.exit

_.exit:                                           ; preds = %11, %14
  %.0.i = phi ptr [ %15, %14 ], [ @.str.90, %11 ]
  %16 = call ptr @oid_to_hex(ptr noundef nonnull %0) #15
  %17 = call i32 (ptr, ptr, ...) @fprintf_ln(ptr noundef %12, ptr noundef %.0.i, ptr noundef nonnull @ref_stash, ptr noundef %16) #15
  br label %18

18:                                               ; preds = %3, %_.exit
  %.0 = phi i32 [ -1, %_.exit ], [ %.mux, %3 ]
  call void @llvm.lifetime.end.p0(i64 64, ptr nonnull %5) #15
  call void @llvm.lifetime.end.p0(i64 320, ptr nonnull %4) #15
  ret i32 %.0
}